target datalayout = "e-m:e-p270:32:32-p271:32:32-p272:64:64-i64:64-i128:128-f80:128-n8:16:32:64-S128"
target triple = "x86_64-pc-linux-gnu"

%struct.dbd_id_rc_msg = type { i32, i64, i64, i32 }

; Function Attrs: nounwind uwtable
define dso_local void @slurmdbd_pack_id_rc_msg(ptr noundef %0, i16 noundef zeroext %1, ptr noundef %2) #0 {
  %4 = alloca ptr, align 8
  %5 = alloca i16, align 2
  %6 = alloca ptr, align 8
  %7 = alloca ptr, align 8
  store ptr %0, ptr %4, align 8
  store i16 %1, ptr %5, align 2
  store ptr %2, ptr %6, align 8
  call void @llvm.lifetime.start.p0(i64 8, ptr %7) #5
  %8 = load ptr, ptr %4, align 8
  store ptr %8, ptr %7, align 8
  %9 = load i16, ptr %5, align 2
  %10 = zext i16 %9 to i32
  %11 = icmp sge i32 %10, 10240
  br i1 %11, label %12, label %29

12:                                               ; preds = %3
  %13 = load ptr, ptr %7, align 8
  %14 = getelementptr inbounds nuw %struct.dbd_id_rc_msg, ptr %13, i32 0, i32 0
  %15 = load i32, ptr %14, align 8
  %16 = load ptr, ptr %6, align 8
  call void @pack32(i32 noundef %15, ptr noundef %16)
  %17 = load ptr, ptr %7, align 8
  %18 = getelementptr inbounds nuw %struct.dbd_id_rc_msg, ptr %17, i32 0, i32 1
  %19 = load i64, ptr %18, align 8
  %20 = load ptr, ptr %6, align 8
  call void @pack64(i64 noundef %19, ptr noundef %20)
  %21 = load ptr, ptr %7, align 8
  %22 = getelementptr inbounds nuw %struct.dbd_id_rc_msg, ptr %21, i32 0, i32 2
  %23 = load i64, ptr %22, align 8
  %24 = load ptr, ptr %6, align 8
  call void @pack64(i64 noundef %23, ptr noundef %24)
  %25 = load ptr, ptr %7, align 8
  %26 = getelementptr inbounds nuw %struct.dbd_id_rc_msg, ptr %25, i32 0, i32 3
  %27 = load i32, ptr %26, align 8
  %28 = load ptr, ptr %6, align 8
  call void @pack32(i32 noundef %27, ptr noundef %28)
  br label %29

29:                                               ; preds = %12, %3
  call void @llvm.lifetime.end.p0(i64 8, ptr %7) #5
  ret void
}