; Function Attrs: nounwind uwtable
define dso_local void @slurmdbd_pack_id_rc_msg(ptr noundef readonly captures(none) %0, i16 noundef zeroext %1, ptr noundef %2) #0 {
  %4 = icmp ugt i16 %1, 10239
  br i1 %4, label %5, label %13

5:                                                ; preds = %3
  %6 = load i32, ptr %0, align 8
  tail call void @pack32(i32 noundef %6, ptr noundef %2) #5
  %7 = getelementptr inbounds nuw i8, ptr %0, i64 8
  %8 = load i64, ptr %7, align 8
  tail call void @pack64(i64 noundef %8, ptr noundef %2) #5
  %9 = getelementptr inbounds nuw i8, ptr %0, i64 16
  %10 = load i64, ptr %9, align 8
  tail call void @pack64(i64 noundef %10, ptr noundef %2) #5
  %11 = getelementptr inbounds nuw i8, ptr %0, i64 24
  %12 = load i32, ptr %11, align 8
  tail call void @pack32(i32 noundef %12, ptr noundef %2) #5
  br label %13

13:                                               ; preds = %5, %3
  ret void
}